target datalayout = "e-m:e-p270:32:32-p271:32:32-p272:64:64-i64:64-i128:128-f80:128-n8:16:32:64-S128"
target triple = "x86_64-unknown-linux-gnu"

%"class.google::protobuf::io::Tokenizer" = type { %"struct.google::protobuf::io::Tokenizer::Token", %"struct.google::protobuf::io::Tokenizer::Token", ptr, ptr, i8, ptr, i32, i32, i8, i32, i32, ptr, i32, i8, i32, i8, i8, i8, i8 }
%"struct.google::protobuf::io::Tokenizer::Token" = type <{ i32, [4 x i8], %"class.std::__cxx11::basic_string", i32, i32, i32, [4 x i8] }>
%"class.std::__cxx11::basic_string" = type { %"struct.std::__cxx11::basic_string<char>::_Alloc_hider", i64, %union.anon }
%"struct.std::__cxx11::basic_string<char>::_Alloc_hider" = type { ptr }
%union.anon = type { i64, [8 x i8] }

; Function Attrs: mustprogress nounwind uwtable
define linkonce_odr hidden void @_ZN6google8protobuf2io9Tokenizer5TokenD2Ev(ptr noundef nonnull align 8 dereferenceable(52) %this) unnamed_addr #4 comdat align 2 {
entry:
  %this.addr = alloca ptr, align 8
  store ptr %this, ptr %this.addr, align 8
  %this1 = load ptr, ptr %this.addr, align 8
  %text = getelementptr inbounds %"struct.google::protobuf::io::Tokenizer::Token", ptr %this1, i32 0, i32 2
  call void @_ZNSt7__cxx1112basic_stringIcSt11char_traitsIcESaIcEED1Ev(ptr noundef nonnull align 8 dereferenceable(32) %text) #3
  ret void
}

; Function Attrs: mustprogress uwtable
define void @_ZN6google8protobuf2io9Tokenizer7RefreshEv(ptr noundef nonnull align 8 dereferenceable(192) %this) #6 align 2 {
entry:
  %this.addr = alloca ptr, align 8
  %data = alloca ptr, align 8
  store ptr %this, ptr %this.addr, align 8
  %this1 = load ptr, ptr %this.addr, align 8
  %read_error_ = getelementptr inbounds %"class.google::protobuf::io::Tokenizer", ptr %this1, i32 0, i32 8
  %0 = load i8, ptr %read_error_, align 8
  %tobool = trunc i8 %0 to i1
  br i1 %tobool, label %if.then, label %if.end

if.then:                                          ; preds = %entry
  %current_char_ = getelementptr inbounds %"class.google::protobuf::io::Tokenizer", ptr %this1, i32 0, i32 4
  store i8 0, ptr %current_char_, align 8
  br label %return

if.end:                                           ; preds = %entry
  %record_target_ = getelementptr inbounds %"class.google::protobuf::io::Tokenizer", ptr %this1, i32 0, i32 11
  %1 = load ptr, ptr %record_target_, align 8
  %cmp = icmp ne ptr %1, null
  br i1 %cmp, label %land.lhs.true, label %if.end9

land.lhs.true:                                    ; preds = %if.end
  %record_start_ = getelementptr inbounds %"class.google::protobuf::io::Tokenizer", ptr %this1, i32 0, i32 12
  %2 = load i32, ptr %record_start_, align 8
  %buffer_size_ = getelementptr inbounds %"class.google::protobuf::io::Tokenizer", ptr %this1, i32 0, i32 6
  %3 = load i32, ptr %buffer_size_, align 8
  %cmp2 = icmp slt i32 %2, %3
  br i1 %cmp2, label %if.then3, label %if.end9

if.then3:                                         ; preds = %land.lhs.true
  %record_target_4 = getelementptr inbounds %"class.google::protobuf::io::Tokenizer", ptr %this1, i32 0, i32 11
  %4 = load ptr, ptr %record_target_4, align 8
  %buffer_ = getelementptr inbounds %"class.google::protobuf::io::Tokenizer", ptr %this1, i32 0, i32 5
  %5 = load ptr, ptr %buffer_, align 8
  %record_start_5 = getelementptr inbounds %"class.google::protobuf::io::Tokenizer", ptr %this1, i32 0, i32 12
  %6 = load i32, ptr %record_start_5, align 8
  %idx.ext = sext i32 %6 to i64
  %add.ptr = getelementptr inbounds i8, ptr %5, i64 %idx.ext
  %buffer_size_6 = getelementptr inbounds %"class.google::protobuf::io::Tokenizer", ptr %this1, i32 0, i32 6
  %7 = load i32, ptr %buffer_size_6, align 8
  %record_start_7 = getelementptr inbounds %"class.google::protobuf::io::Tokenizer", ptr %this1, i32 0, i32 12
  %8 = load i32, ptr %record_start_7, align 8
  %sub = sub nsw i32 %7, %8
  %conv = sext i32 %sub to i64
  %call = call noundef nonnull align 8 dereferenceable(32) ptr @_ZNSt7__cxx1112basic_stringIcSt11char_traitsIcESaIcEE6appendEPKcm(ptr noundef nonnull align 8 dereferenceable(32) %4, ptr noundef %add.ptr, i64 noundef %conv)
  %record_start_8 = getelementptr inbounds %"class.google::protobuf::io::Tokenizer", ptr %this1, i32 0, i32 12
  store i32 0, ptr %record_start_8, align 8
  br label %if.end9

if.end9:                                          ; preds = %if.then3, %land.lhs.true, %if.end
  store ptr null, ptr %data, align 8
  %buffer_10 = getelementptr inbounds %"class.google::protobuf::io::Tokenizer", ptr %this1, i32 0, i32 5
  store ptr null, ptr %buffer_10, align 8
  %buffer_pos_ = getelementptr inbounds %"class.google::protobuf::io::Tokenizer", ptr %this1, i32 0, i32 7
  store i32 0, ptr %buffer_pos_, align 4
  br label %do.body

do.body:                                          ; preds = %do.cond, %if.end9
  %input_ = getelementptr inbounds %"class.google::protobuf::io::Tokenizer", ptr %this1, i32 0, i32 2
  %9 = load ptr, ptr %input_, align 8
  %buffer_size_11 = getelementptr inbounds %"class.google::protobuf::io::Tokenizer", ptr %this1, i32 0, i32 6
  %vtable = load ptr, ptr %9, align 8
  %vfn = getelementptr inbounds ptr, ptr %vtable, i64 2
  %10 = load ptr, ptr %vfn, align 8
  %call12 = call noundef zeroext i1 %10(ptr noundef nonnull align 8 dereferenceable(8) %9, ptr noundef %data, ptr noundef %buffer_size_11)
  br i1 %call12, label %if.end17, label %if.then13

if.then13:                                        ; preds = %do.body
  %buffer_size_14 = getelementptr inbounds %"class.google::protobuf::io::Tokenizer", ptr %this1, i32 0, i32 6
  store i32 0, ptr %buffer_size_14, align 8
  %read_error_15 = getelementptr inbounds %"class.google::protobuf::io::Tokenizer", ptr %this1, i32 0, i32 8
  store i8 1, ptr %read_error_15, align 8
  %current_char_16 = getelementptr inbounds %"class.google::protobuf::io::Tokenizer", ptr %this1, i32 0, i32 4
  store i8 0, ptr %current_char_16, align 8
  br label %return

if.end17:                                         ; preds = %do.body
  br label %do.cond

do.cond:                                          ; preds = %if.end17
  %buffer_size_18 = getelementptr inbounds %"class.google::protobuf::io::Tokenizer", ptr %this1, i32 0, i32 6
  %11 = load i32, ptr %buffer_size_18, align 8
  %cmp19 = icmp eq i32 %11, 0
  br i1 %cmp19, label %do.body, label %do.end, !llvm.loop !4

do.end:                                           ; preds = %do.cond
  %12 = load ptr, ptr %data, align 8
  %buffer_20 = getelementptr inbounds %"class.google::protobuf::io::Tokenizer", ptr %this1, i32 0, i32 5
  store ptr %12, ptr %buffer_20, align 8
  %buffer_21 = getelementptr inbounds %"class.google::protobuf::io::Tokenizer", ptr %this1, i32 0, i32 5
  %13 = load ptr, ptr %buffer_21, align 8
  %arrayidx = getelementptr inbounds i8, ptr %13, i64 0
  %14 = load i8, ptr %arrayidx, align 1
  %current_char_22 = getelementptr inbounds %"class.google::protobuf::io::Tokenizer", ptr %this1, i32 0, i32 4
  store i8 %14, ptr %current_char_22, align 8
  br label %return

return:                                           ; preds = %do.end, %if.then13, %if.then
  ret void
}

; Function Attrs: mustprogress uwtable
define linkonce_odr hidden noundef nonnull align 8 dereferenceable(52) ptr @_ZN6google8protobuf2io9Tokenizer5TokenaSERKS3_(ptr noundef nonnull align 8 dereferenceable(52) %this, ptr noundef nonnull align 8 dereferenceable(52) %0) #6 comdat align 2 {
entry:
  %this.addr = alloca ptr, align 8
  %.addr = alloca ptr, align 8
  store ptr %this, ptr %this.addr, align 8
  store ptr %0, ptr %.addr, align 8
  %this1 = load ptr, ptr %this.addr, align 8
  %1 = load ptr, ptr %.addr, align 8
  %type = getelementptr inbounds %"struct.google::protobuf::io::Tokenizer::Token", ptr %1, i32 0, i32 0
  %2 = load i32, ptr %type, align 8
  %type2 = getelementptr inbounds %"struct.google::protobuf::io::Tokenizer::Token", ptr %this1, i32 0, i32 0
  store i32 %2, ptr %type2, align 8
  %text = getelementptr inbounds %"struct.google::protobuf::io::Tokenizer::Token", ptr %this1, i32 0, i32 2
  %3 = load ptr, ptr %.addr, align 8
  %text3 = getelementptr inbounds %"struct.google::protobuf::io::Tokenizer::Token", ptr %3, i32 0, i32 2
  %call = call noundef nonnull align 8 dereferenceable(32) ptr @_ZNSt7__cxx1112basic_stringIcSt11char_traitsIcESaIcEEaSERKS4_(ptr noundef nonnull align 8 dereferenceable(32) %text, ptr noundef nonnull align 8 dereferenceable(32) %text3)
  %line = getelementptr inbounds %"struct.google::protobuf::io::Tokenizer::Token", ptr %this1, i32 0, i32 3
  %4 = load ptr, ptr %.addr, align 8
  %line4 = getelementptr inbounds %"struct.google::protobuf::io::Tokenizer::Token", ptr %4, i32 0, i32 3
  call void @llvm.memcpy.p0.p0.i64(ptr align 8 %line, ptr align 8 %line4, i64 12, i1 false)
  ret ptr %this1
}

; Function Attrs: mustprogress nounwind uwtable
define linkonce_odr hidden void @_ZN6google8protobuf2io9Tokenizer5TokenC2Ev(ptr noundef nonnull align 8 dereferenceable(52) %this) unnamed_addr #4 comdat align 2 {
entry:
  %this.addr = alloca ptr, align 8
  store ptr %this, ptr %this.addr, align 8
  %this1 = load ptr, ptr %this.addr, align 8
  %text = getelementptr inbounds %"struct.google::protobuf::io::Tokenizer::Token", ptr %this1, i32 0, i32 2
  call void @_ZNSt7__cxx1112basic_stringIcSt11char_traitsIcESaIcEEC1Ev(ptr noundef nonnull align 8 dereferenceable(32) %text) #3
  ret void
}

; Function Attrs: mustprogress uwtable
define void @_ZN6google8protobuf2io9TokenizerC2EPNS1_19ZeroCopyInputStreamEPNS1_14ErrorCollectorE(ptr noundef nonnull align 8 dereferenceable(192) %this, ptr noundef %input, ptr noundef %error_collector) unnamed_addr #6 align 2 personality ptr @__gxx_personality_v0 {
entry:
  %this.addr = alloca ptr, align 8
  %input.addr = alloca ptr, align 8
  %error_collector.addr = alloca ptr, align 8
  %exn.slot = alloca ptr, align 8
  %ehselector.slot = alloca i32, align 4
  store ptr %this, ptr %this.addr, align 8
  store ptr %input, ptr %input.addr, align 8
  store ptr %error_collector, ptr %error_collector.addr, align 8
  %this1 = load ptr, ptr %this.addr, align 8
  %current_ = getelementptr inbounds %"class.google::protobuf::io::Tokenizer", ptr %this1, i32 0, i32 0
  call void @_ZN6google8protobuf2io9Tokenizer5TokenC2Ev(ptr noundef nonnull align 8 dereferenceable(52) %current_) #3
  %previous_ = getelementptr inbounds %"class.google::protobuf::io::Tokenizer", ptr %this1, i32 0, i32 1
  call void @_ZN6google8protobuf2io9Tokenizer5TokenC2Ev(ptr noundef nonnull align 8 dereferenceable(52) %previous_) #3
  %input_ = getelementptr inbounds %"class.google::protobuf::io::Tokenizer", ptr %this1, i32 0, i32 2
  %0 = load ptr, ptr %input.addr, align 8
  store ptr %0, ptr %input_, align 8
  %error_collector_ = getelementptr inbounds %"class.google::protobuf::io::Tokenizer", ptr %this1, i32 0, i32 3
  %1 = load ptr, ptr %error_collector.addr, align 8
  store ptr %1, ptr %error_collector_, align 8
  %buffer_ = getelementptr inbounds %"class.google::protobuf::io::Tokenizer", ptr %this1, i32 0, i32 5
  store ptr null, ptr %buffer_, align 8
  %buffer_size_ = getelementptr inbounds %"class.google::protobuf::io::Tokenizer", ptr %this1, i32 0, i32 6
  store i32 0, ptr %buffer_size_, align 8
  %buffer_pos_ = getelementptr inbounds %"class.google::protobuf::io::Tokenizer", ptr %this1, i32 0, i32 7
  store i32 0, ptr %buffer_pos_, align 4
  %read_error_ = getelementptr inbounds %"class.google::protobuf::io::Tokenizer", ptr %this1, i32 0, i32 8
  store i8 0, ptr %read_error_, align 8
  %line_ = getelementptr inbounds %"class.google::protobuf::io::Tokenizer", ptr %this1, i32 0, i32 9
  store i32 0, ptr %line_, align 4
  %column_ = getelementptr inbounds %"class.google::protobuf::io::Tokenizer", ptr %this1, i32 0, i32 10
  store i32 0, ptr %column_, align 8
  %record_target_ = getelementptr inbounds %"class.google::protobuf::io::Tokenizer", ptr %this1, i32 0, i32 11
  store ptr null, ptr %record_target_, align 8
  %record_start_ = getelementptr inbounds %"class.google::protobuf::io::Tokenizer", ptr %this1, i32 0, i32 12
  store i32 -1, ptr %record_start_, align 8
  %allow_f_after_float_ = getelementptr inbounds %"class.google::protobuf::io::Tokenizer", ptr %this1, i32 0, i32 13
  store i8 0, ptr %allow_f_after_float_, align 4
  %comment_style_ = getelementptr inbounds %"class.google::protobuf::io::Tokenizer", ptr %this1, i32 0, i32 14
  store i32 0, ptr %comment_style_, align 8
  %require_space_after_number_ = getelementptr inbounds %"class.google::protobuf::io::Tokenizer", ptr %this1, i32 0, i32 15
  store i8 1, ptr %require_space_after_number_, align 4
  %allow_multiline_strings_ = getelementptr inbounds %"class.google::protobuf::io::Tokenizer", ptr %this1, i32 0, i32 16
  store i8 0, ptr %allow_multiline_strings_, align 1
  %report_whitespace_ = getelementptr inbounds %"class.google::protobuf::io::Tokenizer", ptr %this1, i32 0, i32 17
  store i8 0, ptr %report_whitespace_, align 2
  %report_newlines_ = getelementptr inbounds %"class.google::protobuf::io::Tokenizer", ptr %this1, i32 0, i32 18
  store i8 0, ptr %report_newlines_, align 1
  %current_2 = getelementptr inbounds %"class.google::protobuf::io::Tokenizer", ptr %this1, i32 0, i32 0
  %line = getelementptr inbounds %"struct.google::protobuf::io::Tokenizer::Token", ptr %current_2, i32 0, i32 3
  store i32 0, ptr %line, align 8
  %current_3 = getelementptr inbounds %"class.google::protobuf::io::Tokenizer", ptr %this1, i32 0, i32 0
  %column = getelementptr inbounds %"struct.google::protobuf::io::Tokenizer::Token", ptr %current_3, i32 0, i32 4
  store i32 0, ptr %column, align 4
  %current_4 = getelementptr inbounds %"class.google::protobuf::io::Tokenizer", ptr %this1, i32 0, i32 0
  %end_column = getelementptr inbounds %"struct.google::protobuf::io::Tokenizer::Token", ptr %current_4, i32 0, i32 5
  store i32 0, ptr %end_column, align 8
  %current_5 = getelementptr inbounds %"class.google::protobuf::io::Tokenizer", ptr %this1, i32 0, i32 0
  %type = getelementptr inbounds %"struct.google::protobuf::io::Tokenizer::Token", ptr %current_5, i32 0, i32 0
  store i32 0, ptr %type, align 8
  %current_6 = getelementptr inbounds %"class.google::protobuf::io::Tokenizer", ptr %this1, i32 0, i32 0
  %previous_7 = getelementptr inbounds %"class.google::protobuf::io::Tokenizer", ptr %this1, i32 0, i32 1
  %call = invoke noundef nonnull align 8 dereferenceable(52) ptr @_ZN6google8protobuf2io9Tokenizer5TokenaSERKS3_(ptr noundef nonnull align 8 dereferenceable(52) %previous_7, ptr noundef nonnull align 8 dereferenceable(52) %current_6)
          to label %invoke.cont unwind label %lpad

invoke.cont:                                      ; preds = %entry
  invoke void @_ZN6google8protobuf2io9Tokenizer7RefreshEv(ptr noundef nonnull align 8 dereferenceable(192) %this1)
          to label %invoke.cont8 unwind label %lpad

invoke.cont8:                                     ; preds = %invoke.cont
  ret void

lpad:                                             ; preds = %invoke.cont, %entry
  %2 = landingpad { ptr, i32 }
          cleanup
  %3 = extractvalue { ptr, i32 } %2, 0
  store ptr %3, ptr %exn.slot, align 8
  %4 = extractvalue { ptr, i32 } %2, 1
  store i32 %4, ptr %ehselector.slot, align 4
  call void @_ZN6google8protobuf2io9Tokenizer5TokenD2Ev(ptr noundef nonnull align 8 dereferenceable(52) %previous_) #3
  call void @_ZN6google8protobuf2io9Tokenizer5TokenD2Ev(ptr noundef nonnull align 8 dereferenceable(52) %current_) #3
  br label %eh.resume

eh.resume:                                        ; preds = %lpad
  %exn = load ptr, ptr %exn.slot, align 8
  %sel = load i32, ptr %ehselector.slot, align 4
  %lpad.val = insertvalue { ptr, i32 } poison, ptr %exn, 0
  %lpad.val9 = insertvalue { ptr, i32 } %lpad.val, i32 %sel, 1
  resume { ptr, i32 } %lpad.val9
}