; Function Attrs: mustprogress uwtable
define void @_ZN6google8protobuf2io9TokenizerC2EPNS1_19ZeroCopyInputStreamEPNS1_14ErrorCollectorE(ptr noundef nonnull align 8 dereferenceable(192) %this, ptr noundef %input, ptr noundef %error_collector) unnamed_addr #6 align 2 personality ptr @__gxx_personality_v0 {
entry:
  %data.i = alloca ptr, align 8
  %text.i = getelementptr inbounds nuw i8, ptr %this, i64 8
  tail call void @_ZNSt7__cxx1112basic_stringIcSt11char_traitsIcESaIcEEC1Ev(ptr noundef nonnull align 8 dereferenceable(32) %text.i) #23
  %previous_ = getelementptr inbounds nuw i8, ptr %this, i64 56
  %text.i1 = getelementptr inbounds nuw i8, ptr %this, i64 64
  tail call void @_ZNSt7__cxx1112basic_stringIcSt11char_traitsIcESaIcEEC1Ev(ptr noundef nonnull align 8 dereferenceable(32) %text.i1) #23
  %input_ = getelementptr inbounds nuw i8, ptr %this, i64 112
  store ptr %input, ptr %input_, align 8
  %error_collector_ = getelementptr inbounds nuw i8, ptr %this, i64 120
  store ptr %error_collector, ptr %error_collector_, align 8
  %buffer_ = getelementptr inbounds nuw i8, ptr %this, i64 136
  %buffer_size_ = getelementptr inbounds nuw i8, ptr %this, i64 144
  %buffer_pos_ = getelementptr inbounds nuw i8, ptr %this, i64 148
  %read_error_ = getelementptr inbounds nuw i8, ptr %this, i64 152
  %line_ = getelementptr inbounds nuw i8, ptr %this, i64 156
  store i32 0, ptr %line_, align 4
  %column_ = getelementptr inbounds nuw i8, ptr %this, i64 160
  store i32 0, ptr %column_, align 8
  %record_target_ = getelementptr inbounds nuw i8, ptr %this, i64 168
  store ptr null, ptr %record_target_, align 8
  %record_start_ = getelementptr inbounds nuw i8, ptr %this, i64 176
  tail call void @llvm.memset.p0.i64(ptr noundef nonnull align 8 dereferenceable(17) %buffer_, i8 0, i64 17, i1 false)
  store i32 -1, ptr %record_start_, align 8
  %allow_f_after_float_ = getelementptr inbounds nuw i8, ptr %this, i64 180
  store i8 0, ptr %allow_f_after_float_, align 4
  %comment_style_ = getelementptr inbounds nuw i8, ptr %this, i64 184
  store i32 0, ptr %comment_style_, align 8
  %require_space_after_number_ = getelementptr inbounds nuw i8, ptr %this, i64 188
  store i8 1, ptr %require_space_after_number_, align 4
  %allow_multiline_strings_ = getelementptr inbounds nuw i8, ptr %this, i64 189
  store i8 0, ptr %allow_multiline_strings_, align 1
  %report_whitespace_ = getelementptr inbounds nuw i8, ptr %this, i64 190
  store i8 0, ptr %report_whitespace_, align 2
  %report_newlines_ = getelementptr inbounds nuw i8, ptr %this, i64 191
  store i8 0, ptr %report_newlines_, align 1
  %line = getelementptr inbounds nuw i8, ptr %this, i64 40
  store i32 0, ptr %line, align 8
  %column = getelementptr inbounds nuw i8, ptr %this, i64 44
  store i32 0, ptr %column, align 4
  %end_column = getelementptr inbounds nuw i8, ptr %this, i64 48
  store i32 0, ptr %end_column, align 8
  store i32 0, ptr %this, align 8
  store i32 0, ptr %previous_, align 8
  %call.i3 = invoke noundef nonnull align 8 dereferenceable(32) ptr @_ZNSt7__cxx1112basic_stringIcSt11char_traitsIcESaIcEEaSERKS4_(ptr noundef nonnull align 8 dereferenceable(32) %text.i1, ptr noundef nonnull align 8 dereferenceable(32) %text.i)
          to label %invoke.cont unwind label %lpad.loopexit.split-lp

invoke.cont:                                      ; preds = %entry
  %line.i = getelementptr inbounds nuw i8, ptr %this, i64 96
  tail call void @llvm.memcpy.p0.p0.i64(ptr noundef nonnull align 8 dereferenceable(12) %line.i, ptr noundef nonnull align 8 dereferenceable(12) %line, i64 12, i1 false)
  call void @llvm.lifetime.start.p0(i64 8, ptr nonnull %data.i)
  %0 = load i8, ptr %read_error_, align 8
  %tobool.i = trunc i8 %0 to i1
  br i1 %tobool.i, label %invoke.cont8, label %if.end.i

if.end.i:                                         ; preds = %invoke.cont
  %1 = load ptr, ptr %record_target_, align 8
  %cmp.not.i = icmp eq ptr %1, null
  br i1 %cmp.not.i, label %if.end9.i, label %land.lhs.true.i

land.lhs.true.i:                                  ; preds = %if.end.i
  %2 = load i32, ptr %record_start_, align 8
  %3 = load i32, ptr %buffer_size_, align 8
  %cmp2.i = icmp slt i32 %2, %3
  br i1 %cmp2.i, label %if.then3.i, label %if.end9.i

if.then3.i:                                       ; preds = %land.lhs.true.i
  %4 = load ptr, ptr %buffer_, align 8
  %idx.ext.i = sext i32 %2 to i64
  %add.ptr.i = getelementptr inbounds i8, ptr %4, i64 %idx.ext.i
  %sub.i = sub nsw i32 %3, %2
  %conv.i = sext i32 %sub.i to i64
  %call.i4 = invoke noundef nonnull align 8 dereferenceable(32) ptr @_ZNSt7__cxx1112basic_stringIcSt11char_traitsIcESaIcEE6appendEPKcm(ptr noundef nonnull align 8 dereferenceable(32) %1, ptr noundef %add.ptr.i, i64 noundef %conv.i)
          to label %call.i.noexc unwind label %lpad.loopexit.split-lp

call.i.noexc:                                     ; preds = %if.then3.i
  store i32 0, ptr %record_start_, align 8
  br label %if.end9.i

if.end9.i:                                        ; preds = %call.i.noexc, %land.lhs.true.i, %if.end.i
  store ptr null, ptr %data.i, align 8
  store ptr null, ptr %buffer_, align 8
  store i32 0, ptr %buffer_pos_, align 4
  br label %do.body.i

do.body.i:                                        ; preds = %do.cond.i, %if.end9.i
  %5 = load ptr, ptr %input_, align 8
  %vtable.i = load ptr, ptr %5, align 8
  %vfn.i = getelementptr inbounds nuw i8, ptr %vtable.i, i64 16
  %6 = load ptr, ptr %vfn.i, align 8
  %call12.i5 = invoke noundef zeroext i1 %6(ptr noundef nonnull align 8 dereferenceable(8) %5, ptr noundef nonnull %data.i, ptr noundef nonnull %buffer_size_)
          to label %call12.i.noexc unwind label %lpad.loopexit

call12.i.noexc:                                   ; preds = %do.body.i
  br i1 %call12.i5, label %do.cond.i, label %if.then13.i

if.then13.i:                                      ; preds = %call12.i.noexc
  store i32 0, ptr %buffer_size_, align 8
  store i8 1, ptr %read_error_, align 8
  br label %invoke.cont8

do.cond.i:                                        ; preds = %call12.i.noexc
  %7 = load i32, ptr %buffer_size_, align 8
  %cmp19.i = icmp eq i32 %7, 0
  br i1 %cmp19.i, label %do.body.i, label %do.end.i, !llvm.loop !4

do.end.i:                                         ; preds = %do.cond.i
  %8 = load ptr, ptr %data.i, align 8
  store ptr %8, ptr %buffer_, align 8
  %9 = load i8, ptr %8, align 1
  br label %invoke.cont8

invoke.cont8:                                     ; preds = %do.end.i, %if.then13.i, %invoke.cont
  %.sink.i = phi i8 [ %9, %do.end.i ], [ 0, %if.then13.i ], [ 0, %invoke.cont ]
  %current_char_22.i = getelementptr inbounds nuw i8, ptr %this, i64 128
  store i8 %.sink.i, ptr %current_char_22.i, align 8
  call void @llvm.lifetime.end.p0(i64 8, ptr nonnull %data.i)
  ret void

lpad.loopexit:                                    ; preds = %do.body.i
  %lpad.loopexit8 = landingpad { ptr, i32 }
          cleanup
  br label %lpad

lpad.loopexit.split-lp:                           ; preds = %entry, %if.then3.i
  %lpad.loopexit.split-lp9 = landingpad { ptr, i32 }
          cleanup
  br label %lpad

lpad:                                             ; preds = %lpad.loopexit.split-lp, %lpad.loopexit
  %lpad.phi = phi { ptr, i32 } [ %lpad.loopexit8, %lpad.loopexit ], [ %lpad.loopexit.split-lp9, %lpad.loopexit.split-lp ]
  call void @_ZNSt7__cxx1112basic_stringIcSt11char_traitsIcESaIcEED1Ev(ptr noundef nonnull align 8 dereferenceable(32) %text.i1) #23
  call void @_ZNSt7__cxx1112basic_stringIcSt11char_traitsIcESaIcEED1Ev(ptr noundef nonnull align 8 dereferenceable(32) %text.i) #23
  resume { ptr, i32 } %lpad.phi
}